target datalayout = "e-m:e-p270:32:32-p271:32:32-p272:64:64-i64:64-i128:128-f80:128-n8:16:32:64-S128"
target triple = "x86_64-pc-linux-gnu"

%"class.std::__cxx11::basic_string" = type { %"struct.std::__cxx11::basic_string<char>::_Alloc_hider", i64, %union.anon }
%"struct.std::__cxx11::basic_string<char>::_Alloc_hider" = type { ptr }
%union.anon = type { i64, [8 x i8] }

@.str.46 = private unnamed_addr constant [3 x i8] c": \00", align 1

; Function Attrs: mustprogress uwtable
define dso_local noundef nonnull align 8 dereferenceable(8) ptr @_ZlsRSoP8FileLine(ptr noundef nonnull align 8 dereferenceable(8) %0, ptr noundef %1) #4 personality ptr @__gxx_personality_v0 {
  %3 = alloca ptr, align 8
  %4 = alloca ptr, align 8
  %5 = alloca %"class.std::__cxx11::basic_string", align 8
  %6 = alloca ptr, align 8
  %7 = alloca i32, align 4
  store ptr %0, ptr %3, align 8
  store ptr %1, ptr %4, align 8
  %8 = load ptr, ptr %3, align 8
  %9 = load ptr, ptr %4, align 8
  call void @_ZNK8FileLine5asciiB5cxx11Ev(ptr dead_on_unwind writable sret(%"class.std::__cxx11::basic_string") align 8 %5, ptr noundef nonnull align 8 dereferenceable(40) %9)
  %10 = invoke noundef nonnull align 8 dereferenceable(8) ptr @_ZStlsIcSt11char_traitsIcESaIcEERSt13basic_ostreamIT_T0_ES7_RKNSt7__cxx1112basic_stringIS4_S5_T1_EE(ptr noundef nonnull align 8 dereferenceable(8) %8, ptr noundef nonnull align 8 dereferenceable(32) %5)
          to label %11 unwind label %17

11:                                               ; preds = %2
  %12 = invoke noundef nonnull align 8 dereferenceable(8) ptr @_ZStlsISt11char_traitsIcEERSt13basic_ostreamIcT_ES5_PKc(ptr noundef nonnull align 8 dereferenceable(8) %10, ptr noundef @.str.46)
          to label %13 unwind label %17

13:                                               ; preds = %11
  %14 = invoke noundef nonnull align 8 dereferenceable(8) ptr @_ZNSolsEPFRSt8ios_baseS0_E(ptr noundef nonnull align 8 dereferenceable(8) %12, ptr noundef @_ZSt3hexRSt8ios_base)
          to label %15 unwind label %17

15:                                               ; preds = %13
  call void @_ZNSt7__cxx1112basic_stringIcSt11char_traitsIcESaIcEED1Ev(ptr noundef nonnull align 8 dereferenceable(32) %5) #3
  %16 = load ptr, ptr %3, align 8
  ret ptr %16

17:                                               ; preds = %13, %11, %2
  %18 = landingpad { ptr, i32 }
          cleanup
  %19 = extractvalue { ptr, i32 } %18, 0
  store ptr %19, ptr %6, align 8
  %20 = extractvalue { ptr, i32 } %18, 1
  store i32 %20, ptr %7, align 4
  call void @_ZNSt7__cxx1112basic_stringIcSt11char_traitsIcESaIcEED1Ev(ptr noundef nonnull align 8 dereferenceable(32) %5) #3
  br label %21

21:                                               ; preds = %17
  %22 = load ptr, ptr %6, align 8
  %23 = load i32, ptr %7, align 4
  %24 = insertvalue { ptr, i32 } poison, ptr %22, 0
  %25 = insertvalue { ptr, i32 } %24, i32 %23, 1
  resume { ptr, i32 } %25
}